; Function Attrs: nounwind uwtable
define range(i32 0, 2) i32 @ossl_cmp_is_error_with_waiting(ptr noundef readonly captures(address_is_null) %0) local_unnamed_addr #0 {
  %.not = icmp eq ptr %0, null
  br i1 %.not, label %OSSL_CMP_MSG_get_bodytype.exit.thread, label %2, !prof !18

2:                                                ; preds = %1
  %3 = getelementptr inbounds nuw i8, ptr %0, i64 8
  %4 = load ptr, ptr %3, align 8, !tbaa !17
  %.not4.i = icmp eq ptr %4, null
  br i1 %.not4.i, label %OSSL_CMP_MSG_get_bodytype.exit.thread, label %OSSL_CMP_MSG_get_bodytype.exit, !prof !18

OSSL_CMP_MSG_get_bodytype.exit:                   ; preds = %2
  %5 = load i32, ptr %4, align 8, !tbaa !19
  %6 = icmp eq i32 %5, 23
  br i1 %6, label %7, label %OSSL_CMP_MSG_get_bodytype.exit.thread

7:                                                ; preds = %OSSL_CMP_MSG_get_bodytype.exit
  %8 = getelementptr inbounds nuw i8, ptr %4, i64 8
  %9 = load ptr, ptr %8, align 8, !tbaa !22
  %10 = load ptr, ptr %9, align 8, !tbaa !92
  %11 = tail call i32 @ossl_cmp_pkisi_get_status(ptr noundef %10) #7
  %12 = icmp eq i32 %11, 3
  %13 = zext i1 %12 to i32
  br label %OSSL_CMP_MSG_get_bodytype.exit.thread

OSSL_CMP_MSG_get_bodytype.exit.thread:            ; preds = %2, %OSSL_CMP_MSG_get_bodytype.exit, %7, %1
  %.0 = phi i32 [ 0, %1 ], [ 0, %OSSL_CMP_MSG_get_bodytype.exit ], [ %13, %7 ], [ 0, %2 ]
  ret i32 %.0
}